; Function Attrs: nounwind uwtable
define void @lv_chart_remove_series(ptr noundef %0, ptr noundef %1) local_unnamed_addr #0 {
  %.not = icmp eq ptr %1, null
  br i1 %.not, label %.preheader, label %3

.preheader:                                       ; preds = %2, %.preheader
  br label %.preheader

3:                                                ; preds = %2
  %4 = getelementptr inbounds nuw i8, ptr %1, i64 24
  %5 = load i8, ptr %4, align 8
  %6 = and i8 %5, 4
  %.not13 = icmp eq i8 %6, 0
  br i1 %.not13, label %7, label %11

7:                                                ; preds = %3
  %8 = getelementptr inbounds nuw i8, ptr %1, i64 8
  %9 = load ptr, ptr %8, align 8, !tbaa !18
  %.not14 = icmp eq ptr %9, null
  br i1 %.not14, label %11, label %10

10:                                               ; preds = %7
  tail call void @lv_free(ptr noundef nonnull %9) #8
  %.pre = load i8, ptr %4, align 8
  br label %11

11:                                               ; preds = %10, %7, %3
  %12 = phi i8 [ %.pre, %10 ], [ %5, %7 ], [ %5, %3 ]
  %13 = and i8 %12, 2
  %.not15 = icmp eq i8 %13, 0
  br i1 %.not15, label %14, label %17

14:                                               ; preds = %11
  %15 = load ptr, ptr %1, align 8, !tbaa !21
  %.not16 = icmp eq ptr %15, null
  br i1 %.not16, label %17, label %16

16:                                               ; preds = %14
  tail call void @lv_free(ptr noundef nonnull %15) #8
  br label %17

17:                                               ; preds = %16, %14, %11
  %18 = getelementptr inbounds nuw i8, ptr %0, i64 64
  tail call void @lv_ll_remove(ptr noundef nonnull %18, ptr noundef nonnull %1) #8
  tail call void @lv_free(ptr noundef nonnull %1) #8
  ret void
}